; Function Attrs: mustprogress uwtable
define noundef zeroext i1 @_ZN3net17AeadBaseEncrypter6SetKeyEN4base16BasicStringPieceINSt7__cxx1112basic_stringIcSt11char_traitsIcESaIcEEEEE(ptr noundef nonnull align 8 dereferenceable(96) %0, ptr readonly captures(none) %1, i64 %2) unnamed_addr #0 align 2 personality ptr @__gxx_personality_v0 {
  %4 = getelementptr inbounds nuw i8, ptr %0, i64 16
  %5 = load i64, ptr %4, align 8, !tbaa !15
  %.not = icmp eq i64 %2, %5
  br i1 %.not, label %6, label %_ZN3net12_GLOBAL__N_117DLogOpenSslErrorsEv.exit

6:                                                ; preds = %3
  %7 = getelementptr inbounds nuw i8, ptr %0, i64 40
  tail call void @llvm.memcpy.p0.p0.i64(ptr nonnull align 8 %7, ptr align 1 %1, i64 %2, i1 false)
  %8 = getelementptr inbounds nuw i8, ptr %0, i64 80
  %9 = tail call noundef ptr @_ZN3net16ScopedEVPAEADCtx3getEv(ptr noundef nonnull align 8 dereferenceable(16) %8)
  tail call void @EVP_AEAD_CTX_cleanup(ptr noundef %9)
  %10 = tail call noundef ptr @_ZN3net16ScopedEVPAEADCtx3getEv(ptr noundef nonnull align 8 dereferenceable(16) %8)
  %11 = getelementptr inbounds nuw i8, ptr %0, i64 8
  %12 = load ptr, ptr %11, align 8, !tbaa !6
  %13 = load i64, ptr %4, align 8, !tbaa !15
  %14 = getelementptr inbounds nuw i8, ptr %0, i64 24
  %15 = load i64, ptr %14, align 8, !tbaa !16
  %16 = tail call i32 @EVP_AEAD_CTX_init(ptr noundef %10, ptr noundef %12, ptr noundef nonnull %7, i64 noundef %13, i64 noundef %15, ptr noundef null)
  %.not2 = icmp eq i32 %16, 0
  br i1 %.not2, label %.preheader, label %_ZN3net12_GLOBAL__N_117DLogOpenSslErrorsEv.exit

.preheader:                                       ; preds = %6, %.preheader
  %17 = tail call i32 @ERR_get_error()
  %.not.i3 = icmp eq i32 %17, 0
  br i1 %.not.i3, label %_ZN3net12_GLOBAL__N_117DLogOpenSslErrorsEv.exit, label %.preheader, !llvm.loop !18

_ZN3net12_GLOBAL__N_117DLogOpenSslErrorsEv.exit:  ; preds = %.preheader, %6, %3
  %.0 = phi i1 [ false, %3 ], [ true, %6 ], [ false, %.preheader ]
  ret i1 %.0
}